; Function Attrs: mustprogress uwtable
define internal void @_ZN12_GLOBAL__N_19ImplPosix8OnReadCBEP11uv_stream_slPK8uv_buf_t(ptr nocapture noundef readonly %0, i64 noundef %1, ptr nocapture readnone %2) #3 align 2 personality ptr @__gxx_personality_v0 {
  %4 = alloca i32, align 4
  %5 = load ptr, ptr %0, align 8
  %6 = icmp eq i64 %1, 0
  br i1 %6, label %_ZN12_GLOBAL__N_19ImplPosix6OnReadElPK8uv_buf_t.exit, label %7

7:                                                ; preds = %3
  %8 = icmp slt i64 %1, 0
  br i1 %8, label %9, label %28

9:                                                ; preds = %7
  %10 = trunc i64 %1 to i32
  %11 = getelementptr inbounds i8, ptr %5, i64 104
  %12 = load i32, ptr %11, align 8
  %13 = icmp eq i32 %12, 0
  br i1 %13, label %_ZN12_GLOBAL__N_19ImplPosix6OnReadElPK8uv_buf_t.exit, label %14

14:                                               ; preds = %9
  %15 = load ptr, ptr %5, align 8
  %16 = getelementptr inbounds i8, ptr %15, i64 32
  %17 = load ptr, ptr %16, align 8
  tail call void %17(ptr noundef nonnull align 8 dereferenceable(178) %5)
  %18 = load i32, ptr %11, align 8
  switch i32 %18, label %22 [
    i32 1, label %19
    i32 2, label %.sink.split.i.i
  ]

19:                                               ; preds = %14
  %20 = getelementptr inbounds i8, ptr %5, i64 112
  tail call void @_ZN2cm19uv_handle_ptr_base_I9uv_pipe_sE5resetEv(ptr noundef nonnull align 8 dereferenceable(16) %20)
  br label %.sink.split.i.i

.sink.split.i.i:                                  ; preds = %19, %14
  %.sink3.i.i = phi i64 [ 128, %19 ], [ 144, %14 ]
  %21 = getelementptr inbounds i8, ptr %5, i64 %.sink3.i.i
  tail call void @_ZN2cm19uv_handle_ptr_base_I9uv_pipe_sE5resetEv(ptr noundef nonnull align 8 dereferenceable(16) %21)
  br label %22

22:                                               ; preds = %.sink.split.i.i, %14
  store i32 0, ptr %11, align 8
  %.not.i.i = icmp eq i32 %10, 0
  %23 = getelementptr inbounds i8, ptr %5, i64 80
  %24 = load ptr, ptr %23, align 8
  %.not.i.i.not.i.i.i = icmp eq ptr %24, null
  %or.cond.i.i = select i1 %.not.i.i, i1 true, i1 %.not.i.i.not.i.i.i
  br i1 %or.cond.i.i, label %_ZN12_GLOBAL__N_19ImplPosix6OnReadElPK8uv_buf_t.exit, label %_ZNKSt8functionIFviEEclEi.exit.i.i.i

_ZNKSt8functionIFviEEclEi.exit.i.i.i:             ; preds = %22
  %25 = getelementptr inbounds i8, ptr %5, i64 64
  call void @llvm.lifetime.start.p0(i64 4, ptr nonnull %4)
  store i32 %10, ptr %4, align 4
  %26 = getelementptr inbounds i8, ptr %5, i64 88
  %27 = load ptr, ptr %26, align 8
  call void %27(ptr noundef nonnull align 8 dereferenceable(16) %25, ptr noundef nonnull align 4 dereferenceable(4) %4)
  call void @llvm.lifetime.end.p0(i64 4, ptr nonnull %4)
  br label %_ZN12_GLOBAL__N_19ImplPosix6OnReadElPK8uv_buf_t.exit

28:                                               ; preds = %7
  %29 = getelementptr inbounds i8, ptr %5, i64 100
  %30 = load i32, ptr %29, align 4
  %31 = add i32 %30, -1
  store i32 %31, ptr %29, align 4
  %32 = icmp eq i32 %31, 0
  br i1 %32, label %33, label %_ZN19cmUVJobServerClient4Impl19DecrementNeedTokensEv.exit.i.i

33:                                               ; preds = %28
  %34 = load ptr, ptr %5, align 8
  %35 = getelementptr inbounds i8, ptr %34, i64 32
  %36 = load ptr, ptr %35, align 8
  tail call void %36(ptr noundef nonnull align 8 dereferenceable(104) %5)
  br label %_ZN19cmUVJobServerClient4Impl19DecrementNeedTokensEv.exit.i.i

_ZN19cmUVJobServerClient4Impl19DecrementNeedTokensEv.exit.i.i: ; preds = %33, %28
  %37 = getelementptr inbounds i8, ptr %5, i64 96
  %38 = load i32, ptr %37, align 8
  %39 = add i32 %38, 1
  store i32 %39, ptr %37, align 8
  %40 = getelementptr inbounds i8, ptr %5, i64 48
  %41 = load ptr, ptr %40, align 8
  %.not.i.i.not.i.i4.i = icmp eq ptr %41, null
  br i1 %.not.i.i.not.i.i4.i, label %45, label %_ZNKSt8functionIFvvEEclEv.exit.i.i.i

_ZNKSt8functionIFvvEEclEv.exit.i.i.i:             ; preds = %_ZN19cmUVJobServerClient4Impl19DecrementNeedTokensEv.exit.i.i
  %42 = getelementptr inbounds i8, ptr %5, i64 32
  %43 = getelementptr inbounds i8, ptr %5, i64 56
  %44 = load ptr, ptr %43, align 8
  tail call void %44(ptr noundef nonnull align 8 dereferenceable(16) %42)
  br label %_ZN12_GLOBAL__N_19ImplPosix6OnReadElPK8uv_buf_t.exit

45:                                               ; preds = %_ZN19cmUVJobServerClient4Impl19DecrementNeedTokensEv.exit.i.i
  store i32 %38, ptr %37, align 8
  %46 = icmp eq i32 %38, 0
  br i1 %46, label %47, label %58

47:                                               ; preds = %45
  %48 = load i32, ptr %29, align 4
  %.not.i.i2.i.i.i = icmp eq i32 %48, 0
  br i1 %.not.i.i2.i.i.i, label %_ZN12_GLOBAL__N_19ImplPosix6OnReadElPK8uv_buf_t.exit, label %49

49:                                               ; preds = %47
  %50 = add i32 %48, -1
  store i32 %50, ptr %29, align 4
  %51 = icmp eq i32 %50, 0
  br i1 %51, label %52, label %_ZN19cmUVJobServerClient4Impl19DecrementNeedTokensEv.exit.i.i.i.i.i

52:                                               ; preds = %49
  %53 = load ptr, ptr %5, align 8
  %54 = getelementptr inbounds i8, ptr %53, i64 32
  %55 = load ptr, ptr %54, align 8
  tail call void %55(ptr noundef nonnull align 8 dereferenceable(104) %5)
  br label %_ZN19cmUVJobServerClient4Impl19DecrementNeedTokensEv.exit.i.i.i.i.i

_ZN19cmUVJobServerClient4Impl19DecrementNeedTokensEv.exit.i.i.i.i.i: ; preds = %52, %49
  %56 = getelementptr inbounds i8, ptr %5, i64 16
  %57 = tail call noundef i32 @_ZN2cm11uv_idle_ptr5startEPFvP9uv_idle_sE(ptr noundef nonnull align 8 dereferenceable(16) %56, ptr noundef nonnull @"_ZZN19cmUVJobServerClient4Impl20RequestImplicitTokenEvEN3$_08__invokeEP9uv_idle_s")
  br label %_ZN12_GLOBAL__N_19ImplPosix6OnReadElPK8uv_buf_t.exit

58:                                               ; preds = %45
  %59 = load ptr, ptr %5, align 8
  %60 = getelementptr inbounds i8, ptr %59, i64 16
  %61 = load ptr, ptr %60, align 8
  tail call void %61(ptr noundef nonnull align 8 dereferenceable(104) %5)
  br label %_ZN12_GLOBAL__N_19ImplPosix6OnReadElPK8uv_buf_t.exit

_ZN12_GLOBAL__N_19ImplPosix6OnReadElPK8uv_buf_t.exit: ; preds = %3, %9, %22, %_ZNKSt8functionIFviEEclEi.exit.i.i.i, %_ZNKSt8functionIFvvEEclEv.exit.i.i.i, %47, %_ZN19cmUVJobServerClient4Impl19DecrementNeedTokensEv.exit.i.i.i.i.i, %58
  ret void
}